; Function Attrs: nounwind uwtable
define dso_local void @RelationPutHeapTuple(ptr noundef readnone captures(none) %0, i32 noundef %1, ptr noundef captures(none) %2, i1 noundef zeroext %3) local_unnamed_addr #0 {
  %5 = icmp slt i32 %1, 0
  br i1 %5, label %6, label %12

6:                                                ; preds = %4
  %7 = load ptr, ptr @LocalBufferBlockPointers, align 8
  %8 = xor i32 %1, -1
  %9 = zext nneg i32 %8 to i64
  %10 = getelementptr inbounds nuw ptr, ptr %7, i64 %9
  %11 = load ptr, ptr %10, align 8
  br label %BufferGetPage.exit

12:                                               ; preds = %4
  %13 = load ptr, ptr @BufferBlocks, align 8
  %14 = add nsw i32 %1, -1
  %15 = sext i32 %14 to i64
  %16 = shl nsw i64 %15, 13
  %17 = getelementptr inbounds nuw i8, ptr %13, i64 %16
  br label %BufferGetPage.exit

BufferGetPage.exit:                               ; preds = %6, %12
  %.0.i.i = phi ptr [ %11, %6 ], [ %17, %12 ]
  %18 = getelementptr inbounds nuw i8, ptr %2, i64 16
  %19 = load ptr, ptr %18, align 8
  %20 = load i32, ptr %2, align 8
  %21 = zext i32 %20 to i64
  %22 = tail call zeroext i16 @PageAddItemExtended(ptr noundef %.0.i.i, ptr noundef %19, i64 noundef %21, i16 noundef zeroext 0, i32 noundef 2) #8
  %23 = icmp eq i16 %22, 0
  br i1 %23, label %24, label %27

24:                                               ; preds = %BufferGetPage.exit
  %25 = tail call zeroext i1 @errstart_cold(i32 noundef 23, ptr noundef null) #9
  tail call void @llvm.assume(i1 %25)
  %26 = tail call i32 (ptr, ...) @errmsg_internal(ptr noundef nonnull @.str) #8
  tail call void @errfinish(ptr noundef nonnull @.str.1, i32 noundef 65, ptr noundef nonnull @__func__.RelationPutHeapTuple) #8
  unreachable

27:                                               ; preds = %BufferGetPage.exit
  %28 = getelementptr inbounds nuw i8, ptr %2, i64 4
  %29 = tail call i32 @BufferGetBlockNumber(i32 noundef %1) #8
  %30 = lshr i32 %29, 16
  %31 = trunc nuw i32 %30 to i16
  store i16 %31, ptr %28, align 2
  %32 = trunc i32 %29 to i16
  %33 = getelementptr inbounds nuw i8, ptr %2, i64 6
  store i16 %32, ptr %33, align 2
  %34 = getelementptr inbounds nuw i8, ptr %2, i64 8
  store i16 %22, ptr %34, align 2
  br i1 %3, label %44, label %35

35:                                               ; preds = %27
  %36 = getelementptr inbounds nuw i8, ptr %.0.i.i, i64 24
  %37 = zext i16 %22 to i64
  %38 = add nsw i64 %37, -1
  %39 = getelementptr inbounds [0 x %struct.ItemIdData], ptr %36, i64 0, i64 %38
  %.val = load i32, ptr %39, align 4
  %40 = and i32 %.val, 32767
  %41 = zext nneg i32 %40 to i64
  %42 = getelementptr inbounds nuw i8, ptr %.0.i.i, i64 %41
  %43 = getelementptr inbounds nuw i8, ptr %42, i64 12
  tail call void @llvm.memcpy.p0.p0.i64(ptr noundef nonnull align 4 dereferenceable(6) %43, ptr noundef nonnull align 4 dereferenceable(6) %28, i64 6, i1 false)
  br label %44

44:                                               ; preds = %35, %27
  ret void
}